target datalayout = "e-m:e-p270:32:32-p271:32:32-p272:64:64-i64:64-i128:128-f80:128-n8:16:32:64-S128"
target triple = "x86_64-pc-linux-gnu"

%struct.tsi_peer_property = type { ptr, %struct.anon }
%struct.anon = type { ptr, i64 }

; Function Attrs: mustprogress nounwind uwtable
define void @_Z22tsi_init_peer_propertyv(ptr dead_on_unwind noalias writable sret(%struct.tsi_peer_property) align 8 %0) #4 {
  call void @llvm.memset.p0.i64(ptr align 8 %0, i8 0, i64 24, i1 false)
  ret void
}

; Function Attrs: mustprogress uwtable
define void @_Z26tsi_peer_property_destructP17tsi_peer_property(ptr noundef %0) #5 {
  %2 = alloca ptr, align 8
  %3 = alloca %struct.tsi_peer_property, align 8
  store ptr %0, ptr %2, align 8, !tbaa !69
  %4 = load ptr, ptr %2, align 8, !tbaa !69
  %5 = getelementptr inbounds nuw %struct.tsi_peer_property, ptr %4, i32 0, i32 0
  %6 = load ptr, ptr %5, align 8, !tbaa !71
  %7 = icmp ne ptr %6, null
  br i1 %7, label %8, label %12

8:                                                ; preds = %1
  %9 = load ptr, ptr %2, align 8, !tbaa !69
  %10 = getelementptr inbounds nuw %struct.tsi_peer_property, ptr %9, i32 0, i32 0
  %11 = load ptr, ptr %10, align 8, !tbaa !71
  call void @gpr_free(ptr noundef %11)
  br label %12

12:                                               ; preds = %8, %1
  %13 = load ptr, ptr %2, align 8, !tbaa !69
  %14 = getelementptr inbounds nuw %struct.tsi_peer_property, ptr %13, i32 0, i32 1
  %15 = getelementptr inbounds nuw %struct.anon, ptr %14, i32 0, i32 0
  %16 = load ptr, ptr %15, align 8, !tbaa !74
  %17 = icmp ne ptr %16, null
  br i1 %17, label %18, label %23

18:                                               ; preds = %12
  %19 = load ptr, ptr %2, align 8, !tbaa !69
  %20 = getelementptr inbounds nuw %struct.tsi_peer_property, ptr %19, i32 0, i32 1
  %21 = getelementptr inbounds nuw %struct.anon, ptr %20, i32 0, i32 0
  %22 = load ptr, ptr %21, align 8, !tbaa !74
  call void @gpr_free(ptr noundef %22)
  br label %23

23:                                               ; preds = %18, %12
  call void @llvm.lifetime.start.p0(i64 24, ptr %3) #3
  call void @_Z22tsi_init_peer_propertyv(ptr dead_on_unwind writable sret(%struct.tsi_peer_property) align 8 %3)
  %24 = load ptr, ptr %2, align 8, !tbaa !69
  call void @llvm.memcpy.p0.p0.i64(ptr align 8 %24, ptr align 8 %3, i64 24, i1 false), !tbaa.struct !75
  call void @llvm.lifetime.end.p0(i64 24, ptr %3) #3
  ret void
}