; Function Attrs: mustprogress uwtable
define void @_Z26tsi_peer_property_destructP17tsi_peer_property(ptr noundef captures(none) initializes((16, 24)) %0) local_unnamed_addr #4 {
  %2 = load ptr, ptr %0, align 8, !tbaa !46
  %.not = icmp eq ptr %2, null
  br i1 %.not, label %4, label %3

3:                                                ; preds = %1
  tail call void @gpr_free(ptr noundef nonnull %2)
  br label %4

4:                                                ; preds = %3, %1
  %5 = getelementptr inbounds nuw i8, ptr %0, i64 8
  %6 = load ptr, ptr %5, align 8, !tbaa !49
  %.not6 = icmp eq ptr %6, null
  br i1 %.not6, label %8, label %7

7:                                                ; preds = %4
  tail call void @gpr_free(ptr noundef nonnull %6)
  br label %8

8:                                                ; preds = %7, %4
  tail call void @llvm.memset.p0.i64(ptr noundef nonnull align 8 dereferenceable(24) %0, i8 0, i64 24, i1 false)
  ret void
}